target datalayout = "e-m:e-p270:32:32-p271:32:32-p272:64:64-i64:64-i128:128-f80:128-n8:16:32:64-S128"
target triple = "x86_64-pc-linux-gnu"

%struct.AVBSFContext = type { ptr, ptr, ptr, ptr, ptr, %struct.AVRational, %struct.AVRational }
%struct.AVRational = type { i32, i32 }
%struct.DTS2PTSContext = type { ptr, ptr, ptr, ptr, ptr, ptr, i64, ptr, %struct.CodedBitstreamFragment, %union.anon, i32, i32, i32 }
%struct.CodedBitstreamFragment = type { ptr, i64, i64, ptr, i32, i32, ptr }
%union.anon = type { %struct.DTS2PTSH264Context }
%struct.DTS2PTSH264Context = type { %struct.H264POCContext, %struct.SPS, i32, i32, i32, i32 }
%struct.H264POCContext = type { i32, i32, i32, [2 x i32], i32, i32, i32, i32, i32, i32 }
%struct.SPS = type { i32, i32, i32, i32, i32, i32, i32, i32, i32, i32, i32, i32, i32, i32, i32, i32, i32, i32, i32, i32, i32, i32, i32, i32, i32, %struct.H2645VUI, i32, i32, i32, i32, [256 x i32], i32, i32, i32, i32, i16, [6 x [16 x i8]], [6 x [64 x i8]], i32, i32, i32, i32, i32, i32, [32 x i32], [32 x i32], i32, i32, i32, i32, i32, i32, i32, i32, [4096 x i8], i64 }
%struct.H2645VUI = type { %struct.AVRational, i32, i32, i32, i32, i32, i32, i32, i32, i32, i32, i32, i32, i32, i32, i32 }
%struct.DTS2PTSNode = type { i64, i64, i32, i32 }

; Function Attrs: nounwind uwtable
define internal i32 @alloc_and_insert_node(ptr noundef %0, i64 noundef %1, i64 noundef %2, i32 noundef %3, i32 noundef %4, i32 noundef %5) #0 {
  %7 = alloca i32, align 4
  %8 = alloca ptr, align 8
  %9 = alloca i64, align 8
  %10 = alloca i64, align 8
  %11 = alloca i32, align 4
  %12 = alloca i32, align 4
  %13 = alloca i32, align 4
  %14 = alloca ptr, align 8
  %15 = alloca i32, align 4
  %16 = alloca i32, align 4
  %17 = alloca ptr, align 8
  %18 = alloca ptr, align 8
  %19 = alloca ptr, align 8
  %20 = alloca %struct.DTS2PTSNode, align 8
  store ptr %0, ptr %8, align 8, !tbaa !4
  store i64 %1, ptr %9, align 8, !tbaa !151
  store i64 %2, ptr %10, align 8, !tbaa !151
  store i32 %3, ptr %11, align 4, !tbaa !20
  store i32 %4, ptr %12, align 4, !tbaa !20
  store i32 %5, ptr %13, align 4, !tbaa !20
  call void @llvm.lifetime.start.p0(i64 8, ptr %14) #7
  %21 = load ptr, ptr %8, align 8, !tbaa !4
  %22 = getelementptr inbounds nuw %struct.AVBSFContext, ptr %21, i32 0, i32 2
  %23 = load ptr, ptr %22, align 8, !tbaa !9
  store ptr %23, ptr %14, align 8, !tbaa !16
  call void @llvm.lifetime.start.p0(i64 4, ptr %15) #7
  store i32 0, ptr %15, align 4, !tbaa !20
  br label %24

24:                                               ; preds = %85, %6
  %25 = load i32, ptr %15, align 4, !tbaa !20
  %26 = load i32, ptr %12, align 4, !tbaa !20
  %27 = icmp slt i32 %25, %26
  br i1 %27, label %29, label %28

28:                                               ; preds = %24
  store i32 2, ptr %16, align 4
  br label %88

29:                                               ; preds = %24
  call void @llvm.lifetime.start.p0(i64 8, ptr %17) #7
  %30 = call ptr @av_tree_node_alloc()
  store ptr %30, ptr %17, align 8, !tbaa !69
  call void @llvm.lifetime.start.p0(i64 8, ptr %18) #7
  call void @llvm.lifetime.start.p0(i64 8, ptr %19) #7
  %31 = load ptr, ptr %17, align 8, !tbaa !69
  %32 = icmp ne ptr %31, null
  br i1 %32, label %34, label %33

33:                                               ; preds = %29
  store i32 -12, ptr %7, align 4
  store i32 1, ptr %16, align 4
  br label %82

34:                                               ; preds = %29
  %35 = load ptr, ptr %14, align 8, !tbaa !16
  %36 = getelementptr inbounds nuw %struct.DTS2PTSContext, ptr %35, i32 0, i32 2
  %37 = load ptr, ptr %36, align 8, !tbaa !49
  %38 = call ptr @av_refstruct_pool_get(ptr noundef %37)
  store ptr %38, ptr %18, align 8, !tbaa !54
  %39 = load ptr, ptr %18, align 8, !tbaa !54
  %40 = icmp ne ptr %39, null
  br i1 %40, label %43, label %41

41:                                               ; preds = %34
  %42 = load ptr, ptr %17, align 8, !tbaa !69
  call void @av_free(ptr noundef %42)
  store i32 -12, ptr %7, align 4
  store i32 1, ptr %16, align 4
  br label %82

43:                                               ; preds = %34
  %44 = load i32, ptr %15, align 4, !tbaa !20
  %45 = icmp ne i32 %44, 0
  br i1 %45, label %46, label %56

46:                                               ; preds = %43
  %47 = load i64, ptr %9, align 8, !tbaa !151
  %48 = icmp ne i64 %47, -9223372036854775808
  br i1 %48, label %49, label %56

49:                                               ; preds = %46
  %50 = load i64, ptr %10, align 8, !tbaa !151
  %51 = load i32, ptr %12, align 4, !tbaa !20
  %52 = sext i32 %51 to i64
  %53 = sdiv i64 %50, %52
  %54 = load i64, ptr %9, align 8, !tbaa !151
  %55 = add nsw i64 %54, %53
  store i64 %55, ptr %9, align 8, !tbaa !151
  br label %56

56:                                               ; preds = %49, %46, %43
  %57 = load ptr, ptr %18, align 8, !tbaa !54
  %58 = getelementptr inbounds nuw %struct.DTS2PTSNode, ptr %20, i32 0, i32 0
  %59 = load i64, ptr %9, align 8, !tbaa !151
  store i64 %59, ptr %58, align 8, !tbaa !64
  %60 = getelementptr inbounds nuw %struct.DTS2PTSNode, ptr %20, i32 0, i32 1
  %61 = load i64, ptr %10, align 8, !tbaa !151
  store i64 %61, ptr %60, align 8, !tbaa !71
  %62 = getelementptr inbounds nuw %struct.DTS2PTSNode, ptr %20, i32 0, i32 2
  %63 = load i32, ptr %11, align 4, !tbaa !20
  %64 = add nsw i32 %63, 1
  store i32 %64, ptr %11, align 4, !tbaa !20
  store i32 %63, ptr %62, align 8, !tbaa !61
  %65 = getelementptr inbounds nuw %struct.DTS2PTSNode, ptr %20, i32 0, i32 3
  %66 = load i32, ptr %13, align 4, !tbaa !20
  store i32 %66, ptr %65, align 4, !tbaa !73
  call void @llvm.memcpy.p0.p0.i64(ptr align 8 %57, ptr align 8 %20, i64 24, i1 false), !tbaa.struct !161
  %67 = load ptr, ptr %14, align 8, !tbaa !16
  %68 = getelementptr inbounds nuw %struct.DTS2PTSContext, ptr %67, i32 0, i32 0
  %69 = load ptr, ptr %18, align 8, !tbaa !54
  %70 = call ptr @av_tree_insert(ptr noundef %68, ptr noundef %69, ptr noundef @cmp_insert, ptr noundef %17)
  store ptr %70, ptr %19, align 8, !tbaa !54
  %71 = load ptr, ptr %19, align 8, !tbaa !54
  %72 = icmp ne ptr %71, null
  br i1 %72, label %73, label %81

73:                                               ; preds = %56
  %74 = load ptr, ptr %19, align 8, !tbaa !54
  %75 = load ptr, ptr %18, align 8, !tbaa !54
  %76 = icmp ne ptr %74, %75
  br i1 %76, label %77, label %81

77:                                               ; preds = %73
  %78 = load ptr, ptr %19, align 8, !tbaa !54
  %79 = load ptr, ptr %18, align 8, !tbaa !54
  call void @llvm.memcpy.p0.p0.i64(ptr align 8 %78, ptr align 8 %79, i64 24, i1 false), !tbaa.struct !161
  call void @av_refstruct_unref(ptr noundef %18)
  %80 = load ptr, ptr %17, align 8, !tbaa !69
  call void @av_free(ptr noundef %80)
  br label %81

81:                                               ; preds = %77, %73, %56
  store i32 0, ptr %16, align 4
  br label %82

82:                                               ; preds = %81, %41, %33
  call void @llvm.lifetime.end.p0(i64 8, ptr %19) #7
  call void @llvm.lifetime.end.p0(i64 8, ptr %18) #7
  call void @llvm.lifetime.end.p0(i64 8, ptr %17) #7
  %83 = load i32, ptr %16, align 4
  switch i32 %83, label %88 [
    i32 0, label %84
  ]

84:                                               ; preds = %82
  br label %85

85:                                               ; preds = %84
  %86 = load i32, ptr %15, align 4, !tbaa !20
  %87 = add nsw i32 %86, 1
  store i32 %87, ptr %15, align 4, !tbaa !20
  br label %24, !llvm.loop !162

88:                                               ; preds = %82, %28
  call void @llvm.lifetime.end.p0(i64 4, ptr %15) #7
  %89 = load i32, ptr %16, align 4
  switch i32 %89, label %91 [
    i32 2, label %90
  ]

90:                                               ; preds = %88
  store i32 0, ptr %7, align 4
  store i32 1, ptr %16, align 4
  br label %91

91:                                               ; preds = %90, %88
  call void @llvm.lifetime.end.p0(i64 8, ptr %14) #7
  %92 = load i32, ptr %7, align 4
  ret i32 %92
}