; Function Attrs: nounwind uwtable
define internal fastcc range(i32 -12, 1) i32 @alloc_and_insert_node(ptr %.16.val, i64 noundef %0, i64 noundef %1, i32 noundef %2, i32 noundef %3, i32 noundef %4) unnamed_addr #0 {
  %6 = alloca ptr, align 8
  %7 = alloca ptr, align 8
  %.not367 = icmp sgt i32 %3, 0
  br i1 %.not367, label %.lr.ph, label %.loopexit

.lr.ph:                                           ; preds = %5
  %8 = getelementptr inbounds nuw i8, ptr %.16.val, i64 16
  %9 = zext nneg i32 %3 to i64
  br label %10

10:                                               ; preds = %.lr.ph, %30
  %.02210 = phi i64 [ %0, %.lr.ph ], [ %.224, %30 ]
  %.0259 = phi i32 [ %2, %.lr.ph ], [ %24, %30 ]
  %.0278 = phi i32 [ 0, %.lr.ph ], [ %31, %30 ]
  call void @llvm.lifetime.start.p0(i64 8, ptr nonnull %6) #9
  %11 = call ptr @av_tree_node_alloc() #9
  store ptr %11, ptr %6, align 8, !tbaa !55
  call void @llvm.lifetime.start.p0(i64 8, ptr nonnull %7) #9
  %.not = icmp eq ptr %11, null
  br i1 %.not, label %.loopexit6, label %12

12:                                               ; preds = %10
  %13 = load ptr, ptr %8, align 8, !tbaa !36
  %14 = call ptr @av_refstruct_pool_get(ptr noundef %13) #9
  store ptr %14, ptr %7, align 8, !tbaa !45
  %.not33 = icmp eq ptr %14, null
  br i1 %.not33, label %15, label %17

15:                                               ; preds = %12
  %16 = load ptr, ptr %6, align 8, !tbaa !55
  call void @av_free(ptr noundef %16) #9
  br label %.loopexit6

17:                                               ; preds = %12
  %18 = icmp ne i32 %.0278, 0
  %19 = icmp ne i64 %.02210, -9223372036854775808
  %or.cond = select i1 %18, i1 %19, i1 false
  br i1 %or.cond, label %20, label %23

20:                                               ; preds = %17
  %21 = sdiv i64 %1, %9
  %22 = add nsw i64 %21, %.02210
  br label %23

23:                                               ; preds = %20, %17
  %.224 = phi i64 [ %22, %20 ], [ %.02210, %17 ]
  %24 = add nsw i32 %.0259, 1
  store i64 %.224, ptr %14, align 8, !tbaa !136
  %.sroa.2.0..sroa_idx = getelementptr inbounds nuw i8, ptr %14, i64 8
  store i64 %1, ptr %.sroa.2.0..sroa_idx, align 8, !tbaa !136
  %.sroa.3.0..sroa_idx = getelementptr inbounds nuw i8, ptr %14, i64 16
  store i32 %.0259, ptr %.sroa.3.0..sroa_idx, align 8, !tbaa !78
  %.sroa.4.0..sroa_idx = getelementptr inbounds nuw i8, ptr %14, i64 20
  store i32 %4, ptr %.sroa.4.0..sroa_idx, align 4, !tbaa !78
  %25 = call ptr @av_tree_insert(ptr noundef nonnull %.16.val, ptr noundef nonnull %14, ptr noundef nonnull @cmp_insert, ptr noundef nonnull %6) #9
  %.not34 = icmp eq ptr %25, null
  br i1 %.not34, label %30, label %26

26:                                               ; preds = %23
  %27 = load ptr, ptr %7, align 8, !tbaa !45
  %.not35 = icmp eq ptr %25, %27
  br i1 %.not35, label %30, label %28

28:                                               ; preds = %26
  call void @llvm.memcpy.p0.p0.i64(ptr noundef nonnull align 8 dereferenceable(24) %25, ptr noundef nonnull align 8 dereferenceable(24) %27, i64 24, i1 false), !tbaa.struct !137
  call void @av_refstruct_unref(ptr noundef nonnull %7) #9
  %29 = load ptr, ptr %6, align 8, !tbaa !55
  call void @av_free(ptr noundef %29) #9
  br label %30

.loopexit6:                                       ; preds = %10, %15
  call void @llvm.lifetime.end.p0(i64 8, ptr nonnull %7) #9
  call void @llvm.lifetime.end.p0(i64 8, ptr nonnull %6) #9
  br label %.loopexit

30:                                               ; preds = %28, %26, %23
  call void @llvm.lifetime.end.p0(i64 8, ptr nonnull %7) #9
  call void @llvm.lifetime.end.p0(i64 8, ptr nonnull %6) #9
  %31 = add nuw nsw i32 %.0278, 1
  %exitcond.not = icmp eq i32 %31, %3
  br i1 %exitcond.not, label %.loopexit, label %10, !llvm.loop !138

.loopexit:                                        ; preds = %30, %5, %.loopexit6
  %spec.select = phi i32 [ -12, %.loopexit6 ], [ 0, %5 ], [ 0, %30 ]
  ret i32 %spec.select
}